; Function Attrs: mustprogress uwtable
define void @_ZN2cv6detail8tracking17TrackerFeatureHOGC2Ev(ptr noundef nonnull align 8 dereferenceable(40) %0) unnamed_addr #6 align 2 personality ptr @__gxx_personality_v0 {
  %2 = getelementptr inbounds nuw i8, ptr %0, i64 8
  %3 = getelementptr inbounds nuw i8, ptr %0, i64 24
  store ptr %3, ptr %2, align 8, !tbaa !17
  %4 = getelementptr inbounds nuw i8, ptr %0, i64 16
  store i64 0, ptr %4, align 8, !tbaa !13
  store i8 0, ptr %3, align 8, !tbaa !19
  store ptr getelementptr inbounds nuw inrange(-16, 32) (i8, ptr @_ZTVN2cv6detail8tracking17TrackerFeatureHOGE, i64 16), ptr %0, align 8, !tbaa !3
  %5 = invoke noundef nonnull align 8 dereferenceable(32) ptr @_ZNSt7__cxx1112basic_stringIcSt11char_traitsIcESaIcEE10_M_replaceEmmPKcm(ptr noundef nonnull align 8 dereferenceable(32) %2, i64 noundef 0, i64 noundef 0, ptr noundef nonnull @.str.1, i64 noundef 3)
          to label %_ZNSt7__cxx1112basic_stringIcSt11char_traitsIcESaIcEEaSEPKc.exit unwind label %6

_ZNSt7__cxx1112basic_stringIcSt11char_traitsIcESaIcEEaSEPKc.exit: ; preds = %1
  ret void

6:                                                ; preds = %1
  %7 = landingpad { ptr, i32 }
          cleanup
  tail call void @_ZN2cv6detail8tracking21TrackerContribFeatureD2Ev(ptr noundef nonnull align 8 dereferenceable(40) %0) #26
  resume { ptr, i32 } %7
}